target datalayout = "e-m:e-p270:32:32-p271:32:32-p272:64:64-i64:64-i128:128-f80:128-n8:16:32:64-S128"
target triple = "x86_64-pc-linux-gnu"

%struct._zend_random_globals = type { ptr, i8, ptr, i8, i32 }

@random_globals = global %struct._zend_random_globals zeroinitializer, align 8

; Function Attrs: nounwind uwtable
define ptr @php_random_default_status() #0 {
  %1 = alloca ptr, align 8
  %2 = load ptr, ptr getelementptr inbounds (%struct._zend_random_globals, ptr @random_globals, i32 0, i32 2), align 8
  store ptr %2, ptr %1, align 8
  %3 = load i8, ptr getelementptr inbounds (%struct._zend_random_globals, ptr @random_globals, i32 0, i32 3), align 8
  %4 = trunc i8 %3 to i1
  br i1 %4, label %7, label %5

5:                                                ; preds = %0
  %6 = load ptr, ptr %1, align 8
  call void @php_random_mt19937_seed_default(ptr noundef %6)
  store i8 1, ptr getelementptr inbounds (%struct._zend_random_globals, ptr @random_globals, i32 0, i32 3), align 8
  br label %7

7:                                                ; preds = %5, %0
  %8 = load ptr, ptr %1, align 8
  ret ptr %8
}

; Function Attrs: nounwind uwtable
define void @php_mt_srand(i32 noundef %0) #0 {
  %2 = alloca i32, align 4
  store i32 %0, ptr %2, align 4
  %3 = call ptr @php_random_default_status()
  %4 = load i32, ptr %2, align 4
  call void @php_random_mt19937_seed32(ptr noundef %3, i32 noundef %4)
  ret void
}